target datalayout = "e-m:e-p270:32:32-p271:32:32-p272:64:64-i64:64-i128:128-f80:128-n8:16:32:64-S128"
target triple = "x86_64-pc-linux-gnu"

%"class.std::__shared_count" = type { ptr }
%"class.std::mutex" = type { %"class.std::__mutex_base" }
%"class.std::__mutex_base" = type { %union.pthread_mutex_t }
%union.pthread_mutex_t = type { %struct.__pthread_mutex_s }
%struct.__pthread_mutex_s = type { i32, i32, i32, i32, i32, i16, i16, %struct.__pthread_internal_list }
%struct.__pthread_internal_list = type { ptr, ptr }
%"class.cm::uv_async_ptr" = type { %"class.cm::uv_handle_ptr_.32" }
%"class.cm::uv_handle_ptr_.32" = type { %"class.cm::uv_handle_ptr_base_.33" }
%"class.cm::uv_handle_ptr_base_.33" = type { %"class.std::shared_ptr.34" }
%"class.std::shared_ptr.34" = type { %"class.std::__shared_ptr.35" }
%"class.std::__shared_ptr.35" = type { ptr, %"class.std::__shared_count" }
%"class.std::condition_variable" = type { %"class.std::__condvar" }
%"class.std::__condvar" = type { %union.pthread_cond_t }
%union.pthread_cond_t = type { %struct.__pthread_cond_s }
%struct.__pthread_cond_s = type { %union.__atomic_wide_counter, %union.__atomic_wide_counter, [2 x i32], [2 x i32], i32, i32, [2 x i32] }
%union.__atomic_wide_counter = type { i64 }
%"class.std::unique_ptr.41" = type { %"struct.std::__uniq_ptr_data.42" }
%"struct.std::__uniq_ptr_data.42" = type { %"class.std::__uniq_ptr_impl.43" }
%"class.std::__uniq_ptr_impl.43" = type { %"class.std::tuple.44" }
%"class.std::tuple.44" = type { %"struct.std::_Tuple_impl.45" }
%"struct.std::_Tuple_impl.45" = type { %"struct.std::_Head_base.48" }
%"struct.std::_Head_base.48" = type { ptr }
%class.cmWorkerPoolInternal = type { %"class.std::unique_ptr.41", %"class.cm::uv_async_ptr", %"class.cm::uv_async_ptr", %"class.std::mutex", i8, i8, i8, i32, i32, i32, %"class.std::deque", %"class.std::condition_variable", %"class.std::condition_variable", %"class.std::vector.52", ptr }
%"class.std::deque" = type { %"class.std::_Deque_base" }
%"class.std::_Deque_base" = type { %"struct.std::_Deque_base<std::unique_ptr<cmWorkerPool::JobT>, std::allocator<std::unique_ptr<cmWorkerPool::JobT>>>::_Deque_impl" }
%"struct.std::_Deque_base<std::unique_ptr<cmWorkerPool::JobT>, std::allocator<std::unique_ptr<cmWorkerPool::JobT>>>::_Deque_impl" = type { %"struct.std::_Deque_base<std::unique_ptr<cmWorkerPool::JobT>, std::allocator<std::unique_ptr<cmWorkerPool::JobT>>>::_Deque_impl_data" }
%"struct.std::_Deque_base<std::unique_ptr<cmWorkerPool::JobT>, std::allocator<std::unique_ptr<cmWorkerPool::JobT>>>::_Deque_impl_data" = type { ptr, i64, %"struct.std::_Deque_iterator", %"struct.std::_Deque_iterator" }
%"struct.std::_Deque_iterator" = type { ptr, ptr, ptr, ptr }
%"class.std::vector.52" = type { %"struct.std::_Vector_base.53" }
%"struct.std::_Vector_base.53" = type { %"struct.std::_Vector_base<std::unique_ptr<cmWorkerPoolWorker>, std::allocator<std::unique_ptr<cmWorkerPoolWorker>>>::_Vector_impl" }
%"struct.std::_Vector_base<std::unique_ptr<cmWorkerPoolWorker>, std::allocator<std::unique_ptr<cmWorkerPoolWorker>>>::_Vector_impl" = type { %"struct.std::_Vector_base<std::unique_ptr<cmWorkerPoolWorker>, std::allocator<std::unique_ptr<cmWorkerPoolWorker>>>::_Vector_impl_data" }
%"struct.std::_Vector_base<std::unique_ptr<cmWorkerPoolWorker>, std::allocator<std::unique_ptr<cmWorkerPoolWorker>>>::_Vector_impl_data" = type { ptr, ptr, ptr }

; Function Attrs: mustprogress nounwind uwtable
define linkonce_odr dso_local noundef nonnull align 8 dereferenceable(8) ptr @_ZNSt10_Head_baseILm0EP9uv_loop_sLb0EE7_M_headERKS2_(ptr noundef nonnull align 8 dereferenceable(8) %0) #2 comdat align 2 {
  %2 = alloca ptr, align 8
  store ptr %0, ptr %2, align 8
  %3 = load ptr, ptr %2, align 8
  %4 = getelementptr inbounds %"struct.std::_Head_base.48", ptr %3, i32 0, i32 0
  ret ptr %4
}

; Function Attrs: mustprogress nounwind uwtable
define linkonce_odr dso_local noundef nonnull align 8 dereferenceable(8) ptr @_ZNSt11_Tuple_implILm0EJP9uv_loop_sSt14default_deleteIS0_EEE7_M_headERKS4_(ptr noundef nonnull align 8 dereferenceable(8) %0) #2 comdat align 2 {
  %2 = alloca ptr, align 8
  store ptr %0, ptr %2, align 8
  %3 = load ptr, ptr %2, align 8
  %4 = call noundef nonnull align 8 dereferenceable(8) ptr @_ZNSt10_Head_baseILm0EP9uv_loop_sLb0EE7_M_headERKS2_(ptr noundef nonnull align 8 dereferenceable(8) %3) #12
  ret ptr %4
}

; Function Attrs: mustprogress nounwind uwtable
define linkonce_odr dso_local noundef nonnull align 8 dereferenceable(8) ptr @_ZSt12__get_helperILm0EP9uv_loop_sJSt14default_deleteIS0_EEERKT0_RKSt11_Tuple_implIXT_EJS4_DpT1_EE(ptr noundef nonnull align 8 dereferenceable(8) %0) #2 comdat {
  %2 = alloca ptr, align 8
  store ptr %0, ptr %2, align 8
  %3 = load ptr, ptr %2, align 8
  %4 = call noundef nonnull align 8 dereferenceable(8) ptr @_ZNSt11_Tuple_implILm0EJP9uv_loop_sSt14default_deleteIS0_EEE7_M_headERKS4_(ptr noundef nonnull align 8 dereferenceable(8) %3) #12
  ret ptr %4
}

; Function Attrs: mustprogress nounwind uwtable
define linkonce_odr dso_local noundef nonnull align 8 dereferenceable(8) ptr @_ZSt3getILm0EJP9uv_loop_sSt14default_deleteIS0_EEERKNSt13tuple_elementIXT_ESt5tupleIJDpT0_EEE4typeERKS8_(ptr noundef nonnull align 8 dereferenceable(8) %0) #2 comdat {
  %2 = alloca ptr, align 8
  store ptr %0, ptr %2, align 8
  %3 = load ptr, ptr %2, align 8
  %4 = call noundef nonnull align 8 dereferenceable(8) ptr @_ZSt12__get_helperILm0EP9uv_loop_sJSt14default_deleteIS0_EEERKT0_RKSt11_Tuple_implIXT_EJS4_DpT1_EE(ptr noundef nonnull align 8 dereferenceable(8) %3) #12
  ret ptr %4
}

; Function Attrs: mustprogress nounwind uwtable
define linkonce_odr dso_local noundef ptr @_ZNKSt15__uniq_ptr_implI9uv_loop_sSt14default_deleteIS0_EE6_M_ptrEv(ptr noundef nonnull align 8 dereferenceable(8) %0) #2 comdat align 2 {
  %2 = alloca ptr, align 8
  store ptr %0, ptr %2, align 8
  %3 = load ptr, ptr %2, align 8
  %4 = getelementptr inbounds %"class.std::__uniq_ptr_impl.43", ptr %3, i32 0, i32 0
  %5 = call noundef nonnull align 8 dereferenceable(8) ptr @_ZSt3getILm0EJP9uv_loop_sSt14default_deleteIS0_EEERKNSt13tuple_elementIXT_ESt5tupleIJDpT0_EEE4typeERKS8_(ptr noundef nonnull align 8 dereferenceable(8) %4) #12
  %6 = load ptr, ptr %5, align 8
  ret ptr %6
}

; Function Attrs: mustprogress nounwind uwtable
define linkonce_odr dso_local noundef ptr @_ZNKSt10unique_ptrI9uv_loop_sSt14default_deleteIS0_EE3getEv(ptr noundef nonnull align 8 dereferenceable(8) %0) #2 comdat align 2 {
  %2 = alloca ptr, align 8
  store ptr %0, ptr %2, align 8
  %3 = load ptr, ptr %2, align 8
  %4 = getelementptr inbounds %"class.std::unique_ptr.41", ptr %3, i32 0, i32 0
  %5 = call noundef ptr @_ZNKSt15__uniq_ptr_implI9uv_loop_sSt14default_deleteIS0_EE6_M_ptrEv(ptr noundef nonnull align 8 dereferenceable(8) %4) #12
  ret ptr %5
}

; Function Attrs: mustprogress nounwind uwtable
define linkonce_odr dso_local noundef nonnull align 8 dereferenceable(848) ptr @_ZNKSt10unique_ptrI9uv_loop_sSt14default_deleteIS0_EEdeEv(ptr noundef nonnull align 8 dereferenceable(8) %0) #2 comdat align 2 {
  %2 = alloca ptr, align 8
  store ptr %0, ptr %2, align 8
  %3 = load ptr, ptr %2, align 8
  br label %4

4:                                                ; preds = %1
  br label %5

5:                                                ; preds = %4
  br label %6

6:                                                ; preds = %5
  %7 = call noundef ptr @_ZNKSt10unique_ptrI9uv_loop_sSt14default_deleteIS0_EE3getEv(ptr noundef nonnull align 8 dereferenceable(8) %3) #12
  ret ptr %7
}

; Function Attrs: mustprogress uwtable
define dso_local noundef zeroext i1 @_ZN20cmWorkerPoolInternal7ProcessEv(ptr noundef nonnull align 8 dereferenceable(304) %0) #0 align 2 {
  %2 = alloca ptr, align 8
  %3 = alloca i8, align 1
  store ptr %0, ptr %2, align 8
  %4 = load ptr, ptr %2, align 8
  %5 = getelementptr inbounds %class.cmWorkerPoolInternal, ptr %4, i32 0, i32 4
  store i8 1, ptr %5, align 8
  %6 = getelementptr inbounds %class.cmWorkerPoolInternal, ptr %4, i32 0, i32 5
  store i8 0, ptr %6, align 1
  %7 = getelementptr inbounds %class.cmWorkerPoolInternal, ptr %4, i32 0, i32 1
  %8 = getelementptr inbounds %class.cmWorkerPoolInternal, ptr %4, i32 0, i32 0
  %9 = call noundef nonnull align 8 dereferenceable(848) ptr @_ZNKSt10unique_ptrI9uv_loop_sSt14default_deleteIS0_EEdeEv(ptr noundef nonnull align 8 dereferenceable(8) %8) #12
  %10 = call noundef i32 @_ZN2cm12uv_async_ptr4initER9uv_loop_sPFvP10uv_async_sEPv(ptr noundef nonnull align 8 dereferenceable(16) %7, ptr noundef nonnull align 8 dereferenceable(848) %9, ptr noundef @_ZN20cmWorkerPoolInternal11UVSlotBeginEP10uv_async_s, ptr noundef %4)
  %11 = getelementptr inbounds %class.cmWorkerPoolInternal, ptr %4, i32 0, i32 2
  %12 = getelementptr inbounds %class.cmWorkerPoolInternal, ptr %4, i32 0, i32 0
  %13 = call noundef nonnull align 8 dereferenceable(848) ptr @_ZNKSt10unique_ptrI9uv_loop_sSt14default_deleteIS0_EEdeEv(ptr noundef nonnull align 8 dereferenceable(8) %12) #12
  %14 = call noundef i32 @_ZN2cm12uv_async_ptr4initER9uv_loop_sPFvP10uv_async_sEPv(ptr noundef nonnull align 8 dereferenceable(16) %11, ptr noundef nonnull align 8 dereferenceable(848) %13, ptr noundef @_ZN20cmWorkerPoolInternal9UVSlotEndEP10uv_async_s, ptr noundef %4)
  %15 = getelementptr inbounds %class.cmWorkerPoolInternal, ptr %4, i32 0, i32 1
  call void @_ZN2cm12uv_async_ptr4sendEv(ptr noundef nonnull align 8 dereferenceable(16) %15)
  %16 = getelementptr inbounds %class.cmWorkerPoolInternal, ptr %4, i32 0, i32 0
  %17 = call noundef ptr @_ZNKSt10unique_ptrI9uv_loop_sSt14default_deleteIS0_EE3getEv(ptr noundef nonnull align 8 dereferenceable(8) %16) #12
  %18 = call i32 @uv_run(ptr noundef %17, i32 noundef 0)
  %19 = icmp eq i32 %18, 0
  %20 = zext i1 %19 to i8
  store i8 %20, ptr %3, align 1
  %21 = getelementptr inbounds %class.cmWorkerPoolInternal, ptr %4, i32 0, i32 4
  store i8 0, ptr %21, align 8
  %22 = getelementptr inbounds %class.cmWorkerPoolInternal, ptr %4, i32 0, i32 5
  store i8 0, ptr %22, align 1
  %23 = load i8, ptr %3, align 1
  %24 = trunc i8 %23 to i1
  ret i1 %24
}