; Function Attrs: mustprogress uwtable
define dso_local noundef zeroext i1 @_ZN20cmWorkerPoolInternal7ProcessEv(ptr noundef nonnull align 8 dereferenceable(304) %0) local_unnamed_addr #0 align 2 {
  %2 = getelementptr inbounds i8, ptr %0, i64 80
  store i8 1, ptr %2, align 8
  %3 = getelementptr inbounds i8, ptr %0, i64 81
  store i8 0, ptr %3, align 1
  %4 = getelementptr inbounds i8, ptr %0, i64 8
  %5 = load ptr, ptr %0, align 8
  %6 = tail call noundef i32 @_ZN2cm12uv_async_ptr4initER9uv_loop_sPFvP10uv_async_sEPv(ptr noundef nonnull align 8 dereferenceable(16) %4, ptr noundef nonnull align 8 dereferenceable(848) %5, ptr noundef nonnull @_ZN20cmWorkerPoolInternal11UVSlotBeginEP10uv_async_s, ptr noundef nonnull %0)
  %7 = getelementptr inbounds i8, ptr %0, i64 24
  %8 = load ptr, ptr %0, align 8
  %9 = tail call noundef i32 @_ZN2cm12uv_async_ptr4initER9uv_loop_sPFvP10uv_async_sEPv(ptr noundef nonnull align 8 dereferenceable(16) %7, ptr noundef nonnull align 8 dereferenceable(848) %8, ptr noundef nonnull @_ZN20cmWorkerPoolInternal9UVSlotEndEP10uv_async_s, ptr noundef nonnull %0)
  tail call void @_ZN2cm12uv_async_ptr4sendEv(ptr noundef nonnull align 8 dereferenceable(16) %4)
  %10 = load ptr, ptr %0, align 8
  %11 = tail call i32 @uv_run(ptr noundef %10, i32 noundef 0)
  %12 = icmp eq i32 %11, 0
  store i8 0, ptr %2, align 8
  store i8 0, ptr %3, align 1
  ret i1 %12
}